(lp0
(dp1
Vdomain
p2
V.instagram.com
p3
sVname
p4
Vurlgen
p5
sVvalue
p6
V"{\u005c"time\u005c": 1533943124\u005c054 \u005c"97.119.105.143\u005c": 209}:1foGgA:BJlLfm-H-8r3Z49FuPs2iiBCPXo"
p7
sVpath
p8
V/
p9
sVhttpOnly
p10
I00
sVsecure
p11
I00
sa(dp12
Vdomain
p13
V.instagram.com
p14
sVsecure
p15
I01
sVvalue
p16
VIGSC980139ccc178781d7cbe84421b4aa427e05890f753dc0a68386ead49519845e2%3AkP7p1UoLts06iO4OJMFKGLkrsPbSz3da%3A%7B%22_auth_user_id%22%3A1934676398%2C%22_auth_user_backend%22%3A%22accounts.backends.CaseInsensitiveModelBackend%22%2C%22_auth_user_hash%22%3A%22%22%2C%22_platform%22%3A4%2C%22_token_ver%22%3A2%2C%22_token%22%3A%221934676398%3ARKxUJ1HTvzdKeK0IKZtKwkpnaqDs61dI%3A49ae005f07d4165d7f7cdfbfaec665028006f4d34899c128f2929f3446765ec2%22%2C%22last_refreshed%22%3A1533943124.4661693573%7D
p17
sVexpiry
p18
F1541719124.492225
sVpath
p19
g9
sVhttpOnly
p20
I01
sVname
p21
Vsessionid
p22
sa(dp23
Vdomain
p24
V.instagram.com
p25
sVname
p26
Vrur
p27
sVvalue
p28
VFTW
p29
sVpath
p30
g9
sVhttpOnly
p31
I00
sVsecure
p32
I00
sa(dp33
Vdomain
p34
V.instagram.com
p35
sVsecure
p36
I00
sVvalue
p37
V3
p38
sVexpiry
p39
F1849303115.066092
sVpath
p40
g9
sVhttpOnly
p41
I00
sVname
p42
Vmcd
p43
sa(dp44
Vdomain
p45
V.instagram.com
p46
sVsecure
p47
I00
sVvalue
p48
V1934676398
p49
sVexpiry
p50
F1541719126.82344
sVpath
p51
g9
sVhttpOnly
p52
I00
sVname
p53
Vds_user_id
p54
sa(dp55
Vdomain
p56
V.instagram.com
p57
sVsecure
p58
I00
sVvalue
p59
V1533943125.422548
p60
sVexpiry
p61
F1534547925.460336
sVpath
p62
g9
sVhttpOnly
p63
I00
sVname
p64
Vshbts
p65
sa(dp66
Vdomain
p67
V.instagram.com
p68
sVsecure
p69
I01
sVvalue
p70
VvXoiuB1bbYLEQCUMiUbsE6aliki8NT8H
p71
sVexpiry
p72
F1565392726.823336
sVpath
p73
g9
sVhttpOnly
p74
I00
sVname
p75
Vcsrftoken
p76
sa(dp77
Vdomain
p78
V.instagram.com
p79
sVsecure
p80
I00
sVvalue
p81
V9977
p82
sVexpiry
p83
F1534547925.460271
sVpath
p84
g9
sVhttpOnly
p85
I00
sVname
p86
Vshbid
p87
sa(dp88
Vdomain
p89
V.instagram.com
p90
sVsecure
p91
I00
sVvalue
p92
VW24dSgAEAAHU8wgtzWFmSZqSaLCP
p93
sVexpiry
p94
F1849303115.066043
sVpath
p95
g9
sVhttpOnly
p96
I00
sVname
p97
Vmid
p98
sa.